target datalayout = "e-m:e-p270:32:32-p271:32:32-p272:64:64-i64:64-i128:128-f80:128-n8:16:32:64-S128"
target triple = "x86_64-pc-linux-gnu"

%"class.cv::Rect_" = type { i32, i32, i32, i32 }
%"class.cv::detail::tracking::contrib_feature::CvLBPEvaluator::Feature" = type { %"class.cv::Rect_", [16 x i32] }

; Function Attrs: inlinehint mustprogress nounwind uwtable
define linkonce_odr hidden void @_ZN2cv5Rect_IiEC2Eiiii(ptr noundef nonnull align 4 dereferenceable(16) %0, i32 noundef %1, i32 noundef %2, i32 noundef %3, i32 noundef %4) unnamed_addr #10 comdat align 2 {
  %6 = alloca ptr, align 8
  %7 = alloca i32, align 4
  %8 = alloca i32, align 4
  %9 = alloca i32, align 4
  %10 = alloca i32, align 4
  store ptr %0, ptr %6, align 8, !tbaa !144
  store i32 %1, ptr %7, align 4, !tbaa !42
  store i32 %2, ptr %8, align 4, !tbaa !42
  store i32 %3, ptr %9, align 4, !tbaa !42
  store i32 %4, ptr %10, align 4, !tbaa !42
  %11 = load ptr, ptr %6, align 8
  %12 = getelementptr inbounds nuw %"class.cv::Rect_", ptr %11, i32 0, i32 0
  %13 = load i32, ptr %7, align 4, !tbaa !42
  store i32 %13, ptr %12, align 4, !tbaa !138
  %14 = getelementptr inbounds nuw %"class.cv::Rect_", ptr %11, i32 0, i32 1
  %15 = load i32, ptr %8, align 4, !tbaa !42
  store i32 %15, ptr %14, align 4, !tbaa !140
  %16 = getelementptr inbounds nuw %"class.cv::Rect_", ptr %11, i32 0, i32 2
  %17 = load i32, ptr %9, align 4, !tbaa !42
  store i32 %17, ptr %16, align 4, !tbaa !141
  %18 = getelementptr inbounds nuw %"class.cv::Rect_", ptr %11, i32 0, i32 3
  %19 = load i32, ptr %10, align 4, !tbaa !42
  store i32 %19, ptr %18, align 4, !tbaa !142
  ret void
}

; Function Attrs: inlinehint mustprogress nounwind uwtable
define linkonce_odr hidden void @_ZN2cv5Rect_IiEC2Ev(ptr noundef nonnull align 4 dereferenceable(16) %0) unnamed_addr #10 comdat align 2 {
  %2 = alloca ptr, align 8
  store ptr %0, ptr %2, align 8, !tbaa !144
  %3 = load ptr, ptr %2, align 8
  %4 = getelementptr inbounds nuw %"class.cv::Rect_", ptr %3, i32 0, i32 0
  store i32 0, ptr %4, align 4, !tbaa !138
  %5 = getelementptr inbounds nuw %"class.cv::Rect_", ptr %3, i32 0, i32 1
  store i32 0, ptr %5, align 4, !tbaa !140
  %6 = getelementptr inbounds nuw %"class.cv::Rect_", ptr %3, i32 0, i32 2
  store i32 0, ptr %6, align 4, !tbaa !141
  %7 = getelementptr inbounds nuw %"class.cv::Rect_", ptr %3, i32 0, i32 3
  store i32 0, ptr %7, align 4, !tbaa !142
  ret void
}

; Function Attrs: mustprogress uwtable
define hidden void @_ZN2cv6detail8tracking15contrib_feature14CvLBPEvaluator7FeatureC2Eiiiii(ptr noundef nonnull align 4 dereferenceable(80) %0, i32 noundef %1, i32 noundef %2, i32 noundef %3, i32 noundef %4, i32 noundef %5) unnamed_addr #4 align 2 {
  %7 = alloca ptr, align 8
  %8 = alloca i32, align 4
  %9 = alloca i32, align 4
  %10 = alloca i32, align 4
  %11 = alloca i32, align 4
  %12 = alloca i32, align 4
  %13 = alloca %"class.cv::Rect_", align 4
  %14 = alloca %"class.cv::Rect_", align 4
  store ptr %0, ptr %7, align 8, !tbaa !237
  store i32 %1, ptr %8, align 4, !tbaa !42
  store i32 %2, ptr %9, align 4, !tbaa !42
  store i32 %3, ptr %10, align 4, !tbaa !42
  store i32 %4, ptr %11, align 4, !tbaa !42
  store i32 %5, ptr %12, align 4, !tbaa !42
  %15 = load ptr, ptr %7, align 8
  %16 = getelementptr inbounds nuw %"class.cv::detail::tracking::contrib_feature::CvLBPEvaluator::Feature", ptr %15, i32 0, i32 0
  call void @_ZN2cv5Rect_IiEC2Ev(ptr noundef nonnull align 4 dereferenceable(16) %16)
  call void @llvm.lifetime.start.p0(i64 16, ptr %13) #3
  call void @llvm.lifetime.start.p0(i64 16, ptr %14) #3
  %17 = load i32, ptr %9, align 4, !tbaa !42
  %18 = load i32, ptr %10, align 4, !tbaa !42
  %19 = load i32, ptr %11, align 4, !tbaa !42
  %20 = load i32, ptr %12, align 4, !tbaa !42
  call void @_ZN2cv5Rect_IiEC2Eiiii(ptr noundef nonnull align 4 dereferenceable(16) %14, i32 noundef %17, i32 noundef %18, i32 noundef %19, i32 noundef %20)
  %21 = getelementptr inbounds nuw %"class.cv::detail::tracking::contrib_feature::CvLBPEvaluator::Feature", ptr %15, i32 0, i32 0
  call void @llvm.memcpy.p0.p0.i64(ptr align 4 %21, ptr align 4 %14, i64 16, i1 false), !tbaa.struct !158
  call void @llvm.memcpy.p0.p0.i64(ptr align 4 %13, ptr align 4 %21, i64 16, i1 false), !tbaa.struct !158
  call void @llvm.lifetime.end.p0(i64 16, ptr %14) #3
  %22 = getelementptr inbounds nuw %"class.cv::Rect_", ptr %13, i32 0, i32 0
  %23 = load i32, ptr %22, align 4, !tbaa !138
  %24 = load i32, ptr %8, align 4, !tbaa !42
  %25 = getelementptr inbounds nuw %"class.cv::Rect_", ptr %13, i32 0, i32 1
  %26 = load i32, ptr %25, align 4, !tbaa !140
  %27 = mul nsw i32 %24, %26
  %28 = add nsw i32 %23, %27
  %29 = getelementptr inbounds nuw %"class.cv::detail::tracking::contrib_feature::CvLBPEvaluator::Feature", ptr %15, i32 0, i32 1
  %30 = getelementptr inbounds [16 x i32], ptr %29, i64 0, i64 0
  store i32 %28, ptr %30, align 4, !tbaa !42
  %31 = getelementptr inbounds nuw %"class.cv::Rect_", ptr %13, i32 0, i32 0
  %32 = load i32, ptr %31, align 4, !tbaa !138
  %33 = getelementptr inbounds nuw %"class.cv::Rect_", ptr %13, i32 0, i32 2
  %34 = load i32, ptr %33, align 4, !tbaa !141
  %35 = add nsw i32 %32, %34
  %36 = load i32, ptr %8, align 4, !tbaa !42
  %37 = getelementptr inbounds nuw %"class.cv::Rect_", ptr %13, i32 0, i32 1
  %38 = load i32, ptr %37, align 4, !tbaa !140
  %39 = mul nsw i32 %36, %38
  %40 = add nsw i32 %35, %39
  %41 = getelementptr inbounds nuw %"class.cv::detail::tracking::contrib_feature::CvLBPEvaluator::Feature", ptr %15, i32 0, i32 1
  %42 = getelementptr inbounds [16 x i32], ptr %41, i64 0, i64 1
  store i32 %40, ptr %42, align 4, !tbaa !42
  %43 = getelementptr inbounds nuw %"class.cv::Rect_", ptr %13, i32 0, i32 0
  %44 = load i32, ptr %43, align 4, !tbaa !138
  %45 = load i32, ptr %8, align 4, !tbaa !42
  %46 = getelementptr inbounds nuw %"class.cv::Rect_", ptr %13, i32 0, i32 1
  %47 = load i32, ptr %46, align 4, !tbaa !140
  %48 = getelementptr inbounds nuw %"class.cv::Rect_", ptr %13, i32 0, i32 3
  %49 = load i32, ptr %48, align 4, !tbaa !142
  %50 = add nsw i32 %47, %49
  %51 = mul nsw i32 %45, %50
  %52 = add nsw i32 %44, %51
  %53 = getelementptr inbounds nuw %"class.cv::detail::tracking::contrib_feature::CvLBPEvaluator::Feature", ptr %15, i32 0, i32 1
  %54 = getelementptr inbounds [16 x i32], ptr %53, i64 0, i64 4
  store i32 %52, ptr %54, align 4, !tbaa !42
  %55 = getelementptr inbounds nuw %"class.cv::Rect_", ptr %13, i32 0, i32 0
  %56 = load i32, ptr %55, align 4, !tbaa !138
  %57 = getelementptr inbounds nuw %"class.cv::Rect_", ptr %13, i32 0, i32 2
  %58 = load i32, ptr %57, align 4, !tbaa !141
  %59 = add nsw i32 %56, %58
  %60 = load i32, ptr %8, align 4, !tbaa !42
  %61 = getelementptr inbounds nuw %"class.cv::Rect_", ptr %13, i32 0, i32 1
  %62 = load i32, ptr %61, align 4, !tbaa !140
  %63 = getelementptr inbounds nuw %"class.cv::Rect_", ptr %13, i32 0, i32 3
  %64 = load i32, ptr %63, align 4, !tbaa !142
  %65 = add nsw i32 %62, %64
  %66 = mul nsw i32 %60, %65
  %67 = add nsw i32 %59, %66
  %68 = getelementptr inbounds nuw %"class.cv::detail::tracking::contrib_feature::CvLBPEvaluator::Feature", ptr %15, i32 0, i32 1
  %69 = getelementptr inbounds [16 x i32], ptr %68, i64 0, i64 5
  store i32 %67, ptr %69, align 4, !tbaa !42
  %70 = getelementptr inbounds nuw %"class.cv::detail::tracking::contrib_feature::CvLBPEvaluator::Feature", ptr %15, i32 0, i32 0
  %71 = getelementptr inbounds nuw %"class.cv::Rect_", ptr %70, i32 0, i32 2
  %72 = load i32, ptr %71, align 4, !tbaa !238
  %73 = mul nsw i32 2, %72
  %74 = getelementptr inbounds nuw %"class.cv::Rect_", ptr %13, i32 0, i32 0
  %75 = load i32, ptr %74, align 4, !tbaa !138
  %76 = add nsw i32 %75, %73
  store i32 %76, ptr %74, align 4, !tbaa !138
  %77 = getelementptr inbounds nuw %"class.cv::Rect_", ptr %13, i32 0, i32 0
  %78 = load i32, ptr %77, align 4, !tbaa !138
  %79 = load i32, ptr %8, align 4, !tbaa !42
  %80 = getelementptr inbounds nuw %"class.cv::Rect_", ptr %13, i32 0, i32 1
  %81 = load i32, ptr %80, align 4, !tbaa !140
  %82 = mul nsw i32 %79, %81
  %83 = add nsw i32 %78, %82
  %84 = getelementptr inbounds nuw %"class.cv::detail::tracking::contrib_feature::CvLBPEvaluator::Feature", ptr %15, i32 0, i32 1
  %85 = getelementptr inbounds [16 x i32], ptr %84, i64 0, i64 2
  store i32 %83, ptr %85, align 4, !tbaa !42
  %86 = getelementptr inbounds nuw %"class.cv::Rect_", ptr %13, i32 0, i32 0
  %87 = load i32, ptr %86, align 4, !tbaa !138
  %88 = getelementptr inbounds nuw %"class.cv::Rect_", ptr %13, i32 0, i32 2
  %89 = load i32, ptr %88, align 4, !tbaa !141
  %90 = add nsw i32 %87, %89
  %91 = load i32, ptr %8, align 4, !tbaa !42
  %92 = getelementptr inbounds nuw %"class.cv::Rect_", ptr %13, i32 0, i32 1
  %93 = load i32, ptr %92, align 4, !tbaa !140
  %94 = mul nsw i32 %91, %93
  %95 = add nsw i32 %90, %94
  %96 = getelementptr inbounds nuw %"class.cv::detail::tracking::contrib_feature::CvLBPEvaluator::Feature", ptr %15, i32 0, i32 1
  %97 = getelementptr inbounds [16 x i32], ptr %96, i64 0, i64 3
  store i32 %95, ptr %97, align 4, !tbaa !42
  %98 = getelementptr inbounds nuw %"class.cv::Rect_", ptr %13, i32 0, i32 0
  %99 = load i32, ptr %98, align 4, !tbaa !138
  %100 = load i32, ptr %8, align 4, !tbaa !42
  %101 = getelementptr inbounds nuw %"class.cv::Rect_", ptr %13, i32 0, i32 1
  %102 = load i32, ptr %101, align 4, !tbaa !140
  %103 = getelementptr inbounds nuw %"class.cv::Rect_", ptr %13, i32 0, i32 3
  %104 = load i32, ptr %103, align 4, !tbaa !142
  %105 = add nsw i32 %102, %104
  %106 = mul nsw i32 %100, %105
  %107 = add nsw i32 %99, %106
  %108 = getelementptr inbounds nuw %"class.cv::detail::tracking::contrib_feature::CvLBPEvaluator::Feature", ptr %15, i32 0, i32 1
  %109 = getelementptr inbounds [16 x i32], ptr %108, i64 0, i64 6
  store i32 %107, ptr %109, align 4, !tbaa !42
  %110 = getelementptr inbounds nuw %"class.cv::Rect_", ptr %13, i32 0, i32 0
  %111 = load i32, ptr %110, align 4, !tbaa !138
  %112 = getelementptr inbounds nuw %"class.cv::Rect_", ptr %13, i32 0, i32 2
  %113 = load i32, ptr %112, align 4, !tbaa !141
  %114 = add nsw i32 %111, %113
  %115 = load i32, ptr %8, align 4, !tbaa !42
  %116 = getelementptr inbounds nuw %"class.cv::Rect_", ptr %13, i32 0, i32 1
  %117 = load i32, ptr %116, align 4, !tbaa !140
  %118 = getelementptr inbounds nuw %"class.cv::Rect_", ptr %13, i32 0, i32 3
  %119 = load i32, ptr %118, align 4, !tbaa !142
  %120 = add nsw i32 %117, %119
  %121 = mul nsw i32 %115, %120
  %122 = add nsw i32 %114, %121
  %123 = getelementptr inbounds nuw %"class.cv::detail::tracking::contrib_feature::CvLBPEvaluator::Feature", ptr %15, i32 0, i32 1
  %124 = getelementptr inbounds [16 x i32], ptr %123, i64 0, i64 7
  store i32 %122, ptr %124, align 4, !tbaa !42
  %125 = getelementptr inbounds nuw %"class.cv::detail::tracking::contrib_feature::CvLBPEvaluator::Feature", ptr %15, i32 0, i32 0
  %126 = getelementptr inbounds nuw %"class.cv::Rect_", ptr %125, i32 0, i32 3
  %127 = load i32, ptr %126, align 4, !tbaa !240
  %128 = mul nsw i32 2, %127
  %129 = getelementptr inbounds nuw %"class.cv::Rect_", ptr %13, i32 0, i32 1
  %130 = load i32, ptr %129, align 4, !tbaa !140
  %131 = add nsw i32 %130, %128
  store i32 %131, ptr %129, align 4, !tbaa !140
  %132 = getelementptr inbounds nuw %"class.cv::Rect_", ptr %13, i32 0, i32 0
  %133 = load i32, ptr %132, align 4, !tbaa !138
  %134 = load i32, ptr %8, align 4, !tbaa !42
  %135 = getelementptr inbounds nuw %"class.cv::Rect_", ptr %13, i32 0, i32 1
  %136 = load i32, ptr %135, align 4, !tbaa !140
  %137 = mul nsw i32 %134, %136
  %138 = add nsw i32 %133, %137
  %139 = getelementptr inbounds nuw %"class.cv::detail::tracking::contrib_feature::CvLBPEvaluator::Feature", ptr %15, i32 0, i32 1
  %140 = getelementptr inbounds [16 x i32], ptr %139, i64 0, i64 10
  store i32 %138, ptr %140, align 4, !tbaa !42
  %141 = getelementptr inbounds nuw %"class.cv::Rect_", ptr %13, i32 0, i32 0
  %142 = load i32, ptr %141, align 4, !tbaa !138
  %143 = getelementptr inbounds nuw %"class.cv::Rect_", ptr %13, i32 0, i32 2
  %144 = load i32, ptr %143, align 4, !tbaa !141
  %145 = add nsw i32 %142, %144
  %146 = load i32, ptr %8, align 4, !tbaa !42
  %147 = getelementptr inbounds nuw %"class.cv::Rect_", ptr %13, i32 0, i32 1
  %148 = load i32, ptr %147, align 4, !tbaa !140
  %149 = mul nsw i32 %146, %148
  %150 = add nsw i32 %145, %149
  %151 = getelementptr inbounds nuw %"class.cv::detail::tracking::contrib_feature::CvLBPEvaluator::Feature", ptr %15, i32 0, i32 1
  %152 = getelementptr inbounds [16 x i32], ptr %151, i64 0, i64 11
  store i32 %150, ptr %152, align 4, !tbaa !42
  %153 = getelementptr inbounds nuw %"class.cv::Rect_", ptr %13, i32 0, i32 0
  %154 = load i32, ptr %153, align 4, !tbaa !138
  %155 = load i32, ptr %8, align 4, !tbaa !42
  %156 = getelementptr inbounds nuw %"class.cv::Rect_", ptr %13, i32 0, i32 1
  %157 = load i32, ptr %156, align 4, !tbaa !140
  %158 = getelementptr inbounds nuw %"class.cv::Rect_", ptr %13, i32 0, i32 3
  %159 = load i32, ptr %158, align 4, !tbaa !142
  %160 = add nsw i32 %157, %159
  %161 = mul nsw i32 %155, %160
  %162 = add nsw i32 %154, %161
  %163 = getelementptr inbounds nuw %"class.cv::detail::tracking::contrib_feature::CvLBPEvaluator::Feature", ptr %15, i32 0, i32 1
  %164 = getelementptr inbounds [16 x i32], ptr %163, i64 0, i64 14
  store i32 %162, ptr %164, align 4, !tbaa !42
  %165 = getelementptr inbounds nuw %"class.cv::Rect_", ptr %13, i32 0, i32 0
  %166 = load i32, ptr %165, align 4, !tbaa !138
  %167 = getelementptr inbounds nuw %"class.cv::Rect_", ptr %13, i32 0, i32 2
  %168 = load i32, ptr %167, align 4, !tbaa !141
  %169 = add nsw i32 %166, %168
  %170 = load i32, ptr %8, align 4, !tbaa !42
  %171 = getelementptr inbounds nuw %"class.cv::Rect_", ptr %13, i32 0, i32 1
  %172 = load i32, ptr %171, align 4, !tbaa !140
  %173 = getelementptr inbounds nuw %"class.cv::Rect_", ptr %13, i32 0, i32 3
  %174 = load i32, ptr %173, align 4, !tbaa !142
  %175 = add nsw i32 %172, %174
  %176 = mul nsw i32 %170, %175
  %177 = add nsw i32 %169, %176
  %178 = getelementptr inbounds nuw %"class.cv::detail::tracking::contrib_feature::CvLBPEvaluator::Feature", ptr %15, i32 0, i32 1
  %179 = getelementptr inbounds [16 x i32], ptr %178, i64 0, i64 15
  store i32 %177, ptr %179, align 4, !tbaa !42
  %180 = getelementptr inbounds nuw %"class.cv::detail::tracking::contrib_feature::CvLBPEvaluator::Feature", ptr %15, i32 0, i32 0
  %181 = getelementptr inbounds nuw %"class.cv::Rect_", ptr %180, i32 0, i32 2
  %182 = load i32, ptr %181, align 4, !tbaa !238
  %183 = mul nsw i32 2, %182
  %184 = getelementptr inbounds nuw %"class.cv::Rect_", ptr %13, i32 0, i32 0
  %185 = load i32, ptr %184, align 4, !tbaa !138
  %186 = sub nsw i32 %185, %183
  store i32 %186, ptr %184, align 4, !tbaa !138
  %187 = getelementptr inbounds nuw %"class.cv::Rect_", ptr %13, i32 0, i32 0
  %188 = load i32, ptr %187, align 4, !tbaa !138
  %189 = load i32, ptr %8, align 4, !tbaa !42
  %190 = getelementptr inbounds nuw %"class.cv::Rect_", ptr %13, i32 0, i32 1
  %191 = load i32, ptr %190, align 4, !tbaa !140
  %192 = mul nsw i32 %189, %191
  %193 = add nsw i32 %188, %192
  %194 = getelementptr inbounds nuw %"class.cv::detail::tracking::contrib_feature::CvLBPEvaluator::Feature", ptr %15, i32 0, i32 1
  %195 = getelementptr inbounds [16 x i32], ptr %194, i64 0, i64 8
  store i32 %193, ptr %195, align 4, !tbaa !42
  %196 = getelementptr inbounds nuw %"class.cv::Rect_", ptr %13, i32 0, i32 0
  %197 = load i32, ptr %196, align 4, !tbaa !138
  %198 = getelementptr inbounds nuw %"class.cv::Rect_", ptr %13, i32 0, i32 2
  %199 = load i32, ptr %198, align 4, !tbaa !141
  %200 = add nsw i32 %197, %199
  %201 = load i32, ptr %8, align 4, !tbaa !42
  %202 = getelementptr inbounds nuw %"class.cv::Rect_", ptr %13, i32 0, i32 1
  %203 = load i32, ptr %202, align 4, !tbaa !140
  %204 = mul nsw i32 %201, %203
  %205 = add nsw i32 %200, %204
  %206 = getelementptr inbounds nuw %"class.cv::detail::tracking::contrib_feature::CvLBPEvaluator::Feature", ptr %15, i32 0, i32 1
  %207 = getelementptr inbounds [16 x i32], ptr %206, i64 0, i64 9
  store i32 %205, ptr %207, align 4, !tbaa !42
  %208 = getelementptr inbounds nuw %"class.cv::Rect_", ptr %13, i32 0, i32 0
  %209 = load i32, ptr %208, align 4, !tbaa !138
  %210 = load i32, ptr %8, align 4, !tbaa !42
  %211 = getelementptr inbounds nuw %"class.cv::Rect_", ptr %13, i32 0, i32 1
  %212 = load i32, ptr %211, align 4, !tbaa !140
  %213 = getelementptr inbounds nuw %"class.cv::Rect_", ptr %13, i32 0, i32 3
  %214 = load i32, ptr %213, align 4, !tbaa !142
  %215 = add nsw i32 %212, %214
  %216 = mul nsw i32 %210, %215
  %217 = add nsw i32 %209, %216
  %218 = getelementptr inbounds nuw %"class.cv::detail::tracking::contrib_feature::CvLBPEvaluator::Feature", ptr %15, i32 0, i32 1
  %219 = getelementptr inbounds [16 x i32], ptr %218, i64 0, i64 12
  store i32 %217, ptr %219, align 4, !tbaa !42
  %220 = getelementptr inbounds nuw %"class.cv::Rect_", ptr %13, i32 0, i32 0
  %221 = load i32, ptr %220, align 4, !tbaa !138
  %222 = getelementptr inbounds nuw %"class.cv::Rect_", ptr %13, i32 0, i32 2
  %223 = load i32, ptr %222, align 4, !tbaa !141
  %224 = add nsw i32 %221, %223
  %225 = load i32, ptr %8, align 4, !tbaa !42
  %226 = getelementptr inbounds nuw %"class.cv::Rect_", ptr %13, i32 0, i32 1
  %227 = load i32, ptr %226, align 4, !tbaa !140
  %228 = getelementptr inbounds nuw %"class.cv::Rect_", ptr %13, i32 0, i32 3
  %229 = load i32, ptr %228, align 4, !tbaa !142
  %230 = add nsw i32 %227, %229
  %231 = mul nsw i32 %225, %230
  %232 = add nsw i32 %224, %231
  %233 = getelementptr inbounds nuw %"class.cv::detail::tracking::contrib_feature::CvLBPEvaluator::Feature", ptr %15, i32 0, i32 1
  %234 = getelementptr inbounds [16 x i32], ptr %233, i64 0, i64 13
  store i32 %232, ptr %234, align 4, !tbaa !42
  call void @llvm.lifetime.end.p0(i64 16, ptr %13) #3
  ret void
}