; Function Attrs: mustprogress nofree norecurse nosync nounwind willreturn memory(argmem: write) uwtable
define hidden void @_ZN2cv6detail8tracking15contrib_feature14CvLBPEvaluator7FeatureC2Eiiiii(ptr noundef nonnull writeonly align 4 captures(none) dereferenceable(80) initializes((0, 80)) %0, i32 noundef %1, i32 noundef %2, i32 noundef %3, i32 noundef %4, i32 noundef %5) unnamed_addr #14 align 2 {
  store i32 %2, ptr %0, align 4, !tbaa !52
  %.sroa.4.0..sroa_idx = getelementptr inbounds nuw i8, ptr %0, i64 4
  store i32 %3, ptr %.sroa.4.0..sroa_idx, align 4, !tbaa !52
  %.sroa.5.0..sroa_idx = getelementptr inbounds nuw i8, ptr %0, i64 8
  store i32 %4, ptr %.sroa.5.0..sroa_idx, align 4, !tbaa !52
  %.sroa.6.0..sroa_idx = getelementptr inbounds nuw i8, ptr %0, i64 12
  store i32 %5, ptr %.sroa.6.0..sroa_idx, align 4, !tbaa !52
  %7 = mul nsw i32 %3, %1
  %8 = add nsw i32 %7, %2
  %9 = getelementptr inbounds nuw i8, ptr %0, i64 16
  store i32 %8, ptr %9, align 4, !tbaa !52
  %10 = add nsw i32 %4, %2
  %11 = add nsw i32 %10, %7
  %12 = getelementptr inbounds nuw i8, ptr %0, i64 20
  store i32 %11, ptr %12, align 4, !tbaa !52
  %13 = add nsw i32 %5, %3
  %14 = mul nsw i32 %13, %1
  %15 = add nsw i32 %14, %2
  %16 = getelementptr inbounds nuw i8, ptr %0, i64 32
  store i32 %15, ptr %16, align 4, !tbaa !52
  %17 = add nsw i32 %14, %10
  %18 = getelementptr inbounds nuw i8, ptr %0, i64 36
  store i32 %17, ptr %18, align 4, !tbaa !52
  %19 = shl nsw i32 %4, 1
  %20 = add nsw i32 %19, %2
  %21 = add nsw i32 %20, %7
  %22 = getelementptr inbounds nuw i8, ptr %0, i64 24
  store i32 %21, ptr %22, align 4, !tbaa !52
  %23 = add nsw i32 %20, %4
  %24 = add nsw i32 %23, %7
  %25 = getelementptr inbounds nuw i8, ptr %0, i64 28
  store i32 %24, ptr %25, align 4, !tbaa !52
  %26 = add nsw i32 %14, %20
  %27 = getelementptr inbounds nuw i8, ptr %0, i64 40
  store i32 %26, ptr %27, align 4, !tbaa !52
  %28 = add nsw i32 %23, %14
  %29 = getelementptr inbounds nuw i8, ptr %0, i64 44
  store i32 %28, ptr %29, align 4, !tbaa !52
  %30 = shl nsw i32 %5, 1
  %31 = add nsw i32 %30, %3
  %32 = mul nsw i32 %31, %1
  %33 = add nsw i32 %32, %20
  %34 = getelementptr inbounds nuw i8, ptr %0, i64 56
  store i32 %33, ptr %34, align 4, !tbaa !52
  %35 = add nsw i32 %32, %23
  %36 = getelementptr inbounds nuw i8, ptr %0, i64 60
  store i32 %35, ptr %36, align 4, !tbaa !52
  %37 = add nsw i32 %31, %5
  %38 = mul nsw i32 %37, %1
  %39 = add nsw i32 %38, %20
  %40 = getelementptr inbounds nuw i8, ptr %0, i64 72
  store i32 %39, ptr %40, align 4, !tbaa !52
  %41 = add nsw i32 %38, %23
  %42 = getelementptr inbounds nuw i8, ptr %0, i64 76
  store i32 %41, ptr %42, align 4, !tbaa !52
  %43 = add nsw i32 %32, %2
  %44 = getelementptr inbounds nuw i8, ptr %0, i64 48
  store i32 %43, ptr %44, align 4, !tbaa !52
  %45 = add nsw i32 %32, %10
  %46 = getelementptr inbounds nuw i8, ptr %0, i64 52
  store i32 %45, ptr %46, align 4, !tbaa !52
  %47 = add nsw i32 %38, %2
  %48 = getelementptr inbounds nuw i8, ptr %0, i64 64
  store i32 %47, ptr %48, align 4, !tbaa !52
  %49 = add nsw i32 %38, %10
  %50 = getelementptr inbounds nuw i8, ptr %0, i64 68
  store i32 %49, ptr %50, align 4, !tbaa !52
  ret void
}